target datalayout = "e-m:e-p270:32:32-p271:32:32-p272:64:64-i64:64-i128:128-f80:128-n8:16:32:64-S128"
target triple = "x86_64-pc-linux-gnu"

; Function Attrs: nounwind uwtable
define i32 @lv_anim_speed_clamped(i32 noundef %0, i32 noundef %1, i32 noundef %2) #0 {
  %4 = alloca i32, align 4
  %5 = alloca i32, align 4
  %6 = alloca i32, align 4
  store i32 %0, ptr %4, align 4, !tbaa !26
  store i32 %1, ptr %5, align 4, !tbaa !26
  store i32 %2, ptr %6, align 4, !tbaa !26
  %7 = load i32, ptr %4, align 4, !tbaa !26
  %8 = icmp ugt i32 %7, 10000
  br i1 %8, label %9, label %12

9:                                                ; preds = %3
  br label %10

10:                                               ; preds = %9
  br label %11

11:                                               ; preds = %10
  store i32 10230, ptr %4, align 4, !tbaa !26
  br label %12

12:                                               ; preds = %11, %3
  %13 = load i32, ptr %5, align 4, !tbaa !26
  %14 = icmp ugt i32 %13, 10000
  br i1 %14, label %15, label %18

15:                                               ; preds = %12
  br label %16

16:                                               ; preds = %15
  br label %17

17:                                               ; preds = %16
  store i32 10230, ptr %5, align 4, !tbaa !26
  br label %18

18:                                               ; preds = %17, %12
  %19 = load i32, ptr %6, align 4, !tbaa !26
  %20 = icmp ugt i32 %19, 10000
  br i1 %20, label %21, label %24

21:                                               ; preds = %18
  br label %22

22:                                               ; preds = %21
  br label %23

23:                                               ; preds = %22
  store i32 10230, ptr %6, align 4, !tbaa !26
  br label %24

24:                                               ; preds = %23, %18
  %25 = load i32, ptr %4, align 4, !tbaa !26
  %26 = add i32 %25, 5
  %27 = udiv i32 %26, 10
  store i32 %27, ptr %4, align 4, !tbaa !26
  %28 = load i32, ptr %5, align 4, !tbaa !26
  %29 = add i32 %28, 5
  %30 = udiv i32 %29, 10
  store i32 %30, ptr %5, align 4, !tbaa !26
  %31 = load i32, ptr %6, align 4, !tbaa !26
  %32 = add i32 %31, 5
  %33 = udiv i32 %32, 10
  store i32 %33, ptr %6, align 4, !tbaa !26
  %34 = load i32, ptr %6, align 4, !tbaa !26
  %35 = shl i32 %34, 20
  %36 = add i32 -2147483648, %35
  %37 = load i32, ptr %5, align 4, !tbaa !26
  %38 = shl i32 %37, 10
  %39 = add i32 %36, %38
  %40 = load i32, ptr %4, align 4, !tbaa !26
  %41 = add i32 %39, %40
  ret i32 %41
}